(i__main__
LogFile
p0
(dp1
S'_installed_files'
p2
(dp3
S'../Simulation/DetSimV2/DetSimOptions/python'
p4
(dp5
S'../../../Simulation/DetSimV2/DetSimOptions/python/DetSimOptions/ConfBalloon.py'
p6
S'../../../../InstallArea/python/DetSimOptions/ConfBalloon.py'
p7
sS'../../../Simulation/DetSimV2/DetSimOptions/python/DetSimOptions/ConfTT.py'
p8
S'../../../../InstallArea/python/DetSimOptions/ConfTT.py'
p9
sS'../../../Simulation/DetSimV2/DetSimOptions/python/DetSimOptions/ConfAcrylic.py'
p10
S'../../../../InstallArea/python/DetSimOptions/ConfAcrylic.py'
p11
sS'../../../Simulation/DetSimV2/DetSimOptions/python/DetSimOptions/__init__.py'
p12
S'../../../../InstallArea/python/DetSimOptions/__init__.py'
p13
ssS'../../../Simulation/DetSimV2/DetSimOptions/amd64_linux26/libDetSimOptions.so'
p14
S'../../../../InstallArea/amd64_linux26/lib/libDetSimOptions.so'
p15
ssb.