(i__main__
LogFile
p0
(dp1
S'_installed_files'
p2
(dp3
S'../../../Simulation/DetSimV2/DetSimOptions/amd64_linux26/libDetSimOptions.so'
p4
S'../../../../InstallArea/amd64_linux26/lib/libDetSimOptions.so'
p5
sS'../Simulation/DetSimV2/DetSimOptions/python'
p6
(dp7
S'../../../Simulation/DetSimV2/DetSimOptions/python/DetSimOptions/.ConfAcrylic.py.swp'
p8
S'../../../../InstallArea/python/DetSimOptions/.ConfAcrylic.py.swp'
p9
sS'../../../Simulation/DetSimV2/DetSimOptions/python/DetSimOptions/ConfBalloon.py'
p10
S'../../../../InstallArea/python/DetSimOptions/ConfBalloon.py'
p11
sS'../../../Simulation/DetSimV2/DetSimOptions/python/DetSimOptions/ConfTT.py'
p12
S'../../../../InstallArea/python/DetSimOptions/ConfTT.py'
p13
sS'../../../Simulation/DetSimV2/DetSimOptions/python/DetSimOptions/ConfAcrylic.py'
p14
S'../../../../InstallArea/python/DetSimOptions/ConfAcrylic.py'
p15
sS'../../../Simulation/DetSimV2/DetSimOptions/python/DetSimOptions/__init__.py'
p16
S'../../../../InstallArea/python/DetSimOptions/__init__.py'
p17
sssb.